target datalayout = "e-m:e-p270:32:32-p271:32:32-p272:64:64-i64:64-i128:128-f80:128-n8:16:32:64-S128"
target triple = "x86_64-pc-linux-gnu"

%"struct.Luau::CodeGen::BuiltinImplResult" = type { i32, i32 }
%"struct.Luau::CodeGen::IrOp" = type { i32 }

; Function Attrs: mustprogress uwtable
define internal void @_ZN4Luau7CodeGenL18builtinCheckDoubleERNS0_9IrBuilderENS0_4IrOpEi(ptr noundef nonnull align 8 dereferenceable(752) %0, i32 %1, i32 noundef %2) #2 {
  %4 = alloca %"struct.Luau::CodeGen::IrOp", align 4
  %5 = alloca ptr, align 8
  %6 = alloca i32, align 4
  %7 = alloca %"struct.Luau::CodeGen::IrOp", align 4
  %8 = alloca %"struct.Luau::CodeGen::IrOp", align 4
  %9 = getelementptr inbounds nuw %"struct.Luau::CodeGen::IrOp", ptr %4, i32 0, i32 0
  store i32 %1, ptr %9, align 4
  store ptr %0, ptr %5, align 8, !tbaa !20
  store i32 %2, ptr %6, align 4, !tbaa !22
  %10 = load i32, ptr %4, align 4
  %11 = and i32 %10, 15
  %12 = icmp eq i32 %11, 2
  br i1 %12, label %13, label %14

13:                                               ; preds = %3
  br label %24

14:                                               ; preds = %3
  %15 = load ptr, ptr %5, align 8, !tbaa !20
  call void @llvm.memcpy.p0.p0.i64(ptr align 4 %7, ptr align 4 %4, i64 4, i1 false), !tbaa.struct !28
  %16 = load ptr, ptr %5, align 8, !tbaa !20
  %17 = load i32, ptr %6, align 4, !tbaa !22
  %18 = call i32 @_ZN4Luau7CodeGen9IrBuilder6vmExitEj(ptr noundef nonnull align 8 dereferenceable(752) %16, i32 noundef %17)
  %19 = getelementptr inbounds nuw %"struct.Luau::CodeGen::IrOp", ptr %8, i32 0, i32 0
  store i32 %18, ptr %19, align 4
  %20 = getelementptr inbounds nuw %"struct.Luau::CodeGen::IrOp", ptr %7, i32 0, i32 0
  %21 = load i32, ptr %20, align 4
  %22 = getelementptr inbounds nuw %"struct.Luau::CodeGen::IrOp", ptr %8, i32 0, i32 0
  %23 = load i32, ptr %22, align 4
  call void @_ZN4Luau7CodeGen9IrBuilder15loadAndCheckTagENS0_4IrOpEhS2_(ptr noundef nonnull align 8 dereferenceable(752) %15, i32 %21, i8 noundef zeroext 3, i32 %23)
  br label %24

24:                                               ; preds = %14, %13
  ret void
}

; Function Attrs: mustprogress uwtable
define internal i64 @_ZN4Luau7CodeGenL31translateBuiltinNumberTo2NumberERNS0_9IrBuilderE19LuauBuiltinFunctioniiiNS0_4IrOpEii(ptr noundef nonnull align 8 dereferenceable(752) %0, i32 noundef %1, i32 noundef %2, i32 noundef %3, i32 noundef %4, i32 %5, i32 noundef %6, i32 noundef %7) #2 {
  %9 = alloca %"struct.Luau::CodeGen::BuiltinImplResult", align 4
  %10 = alloca %"struct.Luau::CodeGen::IrOp", align 4
  %11 = alloca ptr, align 8
  %12 = alloca i32, align 4
  %13 = alloca i32, align 4
  %14 = alloca i32, align 4
  %15 = alloca i32, align 4
  %16 = alloca i32, align 4
  %17 = alloca i32, align 4
  %18 = alloca %"struct.Luau::CodeGen::IrOp", align 4
  %19 = alloca %"struct.Luau::CodeGen::IrOp", align 4
  %20 = alloca %"struct.Luau::CodeGen::IrOp", align 4
  %21 = alloca %"struct.Luau::CodeGen::IrOp", align 4
  %22 = alloca %"struct.Luau::CodeGen::IrOp", align 4
  %23 = alloca %"struct.Luau::CodeGen::IrOp", align 4
  %24 = getelementptr inbounds nuw %"struct.Luau::CodeGen::IrOp", ptr %10, i32 0, i32 0
  store i32 %5, ptr %24, align 4
  store ptr %0, ptr %11, align 8, !tbaa !20
  store i32 %1, ptr %12, align 4, !tbaa !39
  store i32 %2, ptr %13, align 4, !tbaa !22
  store i32 %3, ptr %14, align 4, !tbaa !22
  store i32 %4, ptr %15, align 4, !tbaa !22
  store i32 %6, ptr %16, align 4, !tbaa !22
  store i32 %7, ptr %17, align 4, !tbaa !22
  %25 = load i32, ptr %13, align 4, !tbaa !22
  %26 = icmp slt i32 %25, 1
  br i1 %26, label %30, label %27

27:                                               ; preds = %8
  %28 = load i32, ptr %16, align 4, !tbaa !22
  %29 = icmp sgt i32 %28, 2
  br i1 %29, label %30, label %33

30:                                               ; preds = %27, %8
  %31 = getelementptr inbounds nuw %"struct.Luau::CodeGen::BuiltinImplResult", ptr %9, i32 0, i32 0
  store i32 0, ptr %31, align 4, !tbaa !24
  %32 = getelementptr inbounds nuw %"struct.Luau::CodeGen::BuiltinImplResult", ptr %9, i32 0, i32 1
  store i32 -1, ptr %32, align 4, !tbaa !27
  br label %76

33:                                               ; preds = %27
  %34 = load ptr, ptr %11, align 8, !tbaa !20
  %35 = load ptr, ptr %11, align 8, !tbaa !20
  %36 = load i32, ptr %15, align 4, !tbaa !22
  %37 = trunc i32 %36 to i8
  %38 = call i32 @_ZN4Luau7CodeGen9IrBuilder5vmRegEh(ptr noundef nonnull align 8 dereferenceable(752) %35, i8 noundef zeroext %37)
  %39 = getelementptr inbounds nuw %"struct.Luau::CodeGen::IrOp", ptr %18, i32 0, i32 0
  store i32 %38, ptr %39, align 4
  %40 = load i32, ptr %17, align 4, !tbaa !22
  %41 = getelementptr inbounds nuw %"struct.Luau::CodeGen::IrOp", ptr %18, i32 0, i32 0
  %42 = load i32, ptr %41, align 4
  call void @_ZN4Luau7CodeGenL18builtinCheckDoubleERNS0_9IrBuilderENS0_4IrOpEi(ptr noundef nonnull align 8 dereferenceable(752) %34, i32 %42, i32 noundef %40)
  %43 = load ptr, ptr %11, align 8, !tbaa !20
  %44 = load ptr, ptr %11, align 8, !tbaa !20
  %45 = load i32, ptr %12, align 4, !tbaa !39
  %46 = call i32 @_ZN4Luau7CodeGen9IrBuilder9constUintEj(ptr noundef nonnull align 8 dereferenceable(752) %44, i32 noundef %45)
  %47 = getelementptr inbounds nuw %"struct.Luau::CodeGen::IrOp", ptr %19, i32 0, i32 0
  store i32 %46, ptr %47, align 4
  %48 = load ptr, ptr %11, align 8, !tbaa !20
  %49 = load i32, ptr %14, align 4, !tbaa !22
  %50 = trunc i32 %49 to i8
  %51 = call i32 @_ZN4Luau7CodeGen9IrBuilder5vmRegEh(ptr noundef nonnull align 8 dereferenceable(752) %48, i8 noundef zeroext %50)
  %52 = getelementptr inbounds nuw %"struct.Luau::CodeGen::IrOp", ptr %20, i32 0, i32 0
  store i32 %51, ptr %52, align 4
  %53 = load ptr, ptr %11, align 8, !tbaa !20
  %54 = load i32, ptr %15, align 4, !tbaa !22
  %55 = trunc i32 %54 to i8
  %56 = call i32 @_ZN4Luau7CodeGen9IrBuilder5vmRegEh(ptr noundef nonnull align 8 dereferenceable(752) %53, i8 noundef zeroext %55)
  %57 = getelementptr inbounds nuw %"struct.Luau::CodeGen::IrOp", ptr %21, i32 0, i32 0
  store i32 %56, ptr %57, align 4
  %58 = load ptr, ptr %11, align 8, !tbaa !20
  %59 = load i32, ptr %16, align 4, !tbaa !22
  %60 = icmp eq i32 %59, 1
  %61 = select i1 %60, i32 1, i32 2
  %62 = call i32 @_ZN4Luau7CodeGen9IrBuilder8constIntEi(ptr noundef nonnull align 8 dereferenceable(752) %58, i32 noundef %61)
  %63 = getelementptr inbounds nuw %"struct.Luau::CodeGen::IrOp", ptr %22, i32 0, i32 0
  store i32 %62, ptr %63, align 4
  %64 = getelementptr inbounds nuw %"struct.Luau::CodeGen::IrOp", ptr %19, i32 0, i32 0
  %65 = load i32, ptr %64, align 4
  %66 = getelementptr inbounds nuw %"struct.Luau::CodeGen::IrOp", ptr %20, i32 0, i32 0
  %67 = load i32, ptr %66, align 4
  %68 = getelementptr inbounds nuw %"struct.Luau::CodeGen::IrOp", ptr %21, i32 0, i32 0
  %69 = load i32, ptr %68, align 4
  %70 = getelementptr inbounds nuw %"struct.Luau::CodeGen::IrOp", ptr %22, i32 0, i32 0
  %71 = load i32, ptr %70, align 4
  %72 = call i32 @_ZN4Luau7CodeGen9IrBuilder4instENS0_5IrCmdENS0_4IrOpES3_S3_S3_(ptr noundef nonnull align 8 dereferenceable(752) %43, i8 noundef zeroext 71, i32 %65, i32 %67, i32 %69, i32 %71)
  %73 = getelementptr inbounds nuw %"struct.Luau::CodeGen::IrOp", ptr %23, i32 0, i32 0
  store i32 %72, ptr %73, align 4
  %74 = getelementptr inbounds nuw %"struct.Luau::CodeGen::BuiltinImplResult", ptr %9, i32 0, i32 0
  store i32 2, ptr %74, align 4, !tbaa !24
  %75 = getelementptr inbounds nuw %"struct.Luau::CodeGen::BuiltinImplResult", ptr %9, i32 0, i32 1
  store i32 2, ptr %75, align 4, !tbaa !27
  br label %76

76:                                               ; preds = %33, %30
  %77 = load i64, ptr %9, align 4
  ret i64 %77
}