; Function Attrs: mustprogress uwtable
define internal fastcc range(i64 -4294967296, 8589934595) i64 @_ZN4Luau7CodeGenL31translateBuiltinNumberTo2NumberERNS0_9IrBuilderE19LuauBuiltinFunctioniiiNS0_4IrOpEii(ptr noundef nonnull align 8 dereferenceable(752) %0, i32 noundef %1, i32 noundef range(i32 0, -1) %2, i32 noundef %3, i32 noundef %4, i32 noundef %5, i32 noundef %6) unnamed_addr #0 {
  %8 = icmp slt i32 %2, 1
  %9 = icmp sgt i32 %5, 2
  %or.cond = or i1 %8, %9
  br i1 %or.cond, label %25, label %10

10:                                               ; preds = %7
  %11 = trunc i32 %4 to i8
  %12 = tail call i32 @_ZN4Luau7CodeGen9IrBuilder5vmRegEh(ptr noundef nonnull align 8 dereferenceable(752) %0, i8 noundef zeroext %11)
  %13 = and i32 %12, 15
  %14 = icmp eq i32 %13, 2
  br i1 %14, label %_ZN4Luau7CodeGenL18builtinCheckDoubleERNS0_9IrBuilderENS0_4IrOpEi.exit, label %15

15:                                               ; preds = %10
  %16 = tail call i32 @_ZN4Luau7CodeGen9IrBuilder6vmExitEj(ptr noundef nonnull align 8 dereferenceable(752) %0, i32 noundef %6)
  tail call void @_ZN4Luau7CodeGen9IrBuilder15loadAndCheckTagENS0_4IrOpEhS2_(ptr noundef nonnull align 8 dereferenceable(752) %0, i32 %12, i8 noundef zeroext 3, i32 %16)
  br label %_ZN4Luau7CodeGenL18builtinCheckDoubleERNS0_9IrBuilderENS0_4IrOpEi.exit

_ZN4Luau7CodeGenL18builtinCheckDoubleERNS0_9IrBuilderENS0_4IrOpEi.exit: ; preds = %10, %15
  %17 = tail call i32 @_ZN4Luau7CodeGen9IrBuilder9constUintEj(ptr noundef nonnull align 8 dereferenceable(752) %0, i32 noundef %1)
  %18 = trunc i32 %3 to i8
  %19 = tail call i32 @_ZN4Luau7CodeGen9IrBuilder5vmRegEh(ptr noundef nonnull align 8 dereferenceable(752) %0, i8 noundef zeroext %18)
  %20 = tail call i32 @_ZN4Luau7CodeGen9IrBuilder5vmRegEh(ptr noundef nonnull align 8 dereferenceable(752) %0, i8 noundef zeroext %11)
  %21 = icmp eq i32 %5, 1
  %22 = select i1 %21, i32 1, i32 2
  %23 = tail call i32 @_ZN4Luau7CodeGen9IrBuilder8constIntEi(ptr noundef nonnull align 8 dereferenceable(752) %0, i32 noundef %22)
  %24 = tail call i32 @_ZN4Luau7CodeGen9IrBuilder4instENS0_5IrCmdENS0_4IrOpES3_S3_S3_(ptr noundef nonnull align 8 dereferenceable(752) %0, i8 noundef zeroext 71, i32 %17, i32 %19, i32 %20, i32 %23)
  br label %25

25:                                               ; preds = %7, %_ZN4Luau7CodeGenL18builtinCheckDoubleERNS0_9IrBuilderENS0_4IrOpEi.exit
  %.sroa.021.0.insert.insert = phi i64 [ 8589934594, %_ZN4Luau7CodeGenL18builtinCheckDoubleERNS0_9IrBuilderENS0_4IrOpEi.exit ], [ -4294967296, %7 ]
  ret i64 %.sroa.021.0.insert.insert
}